; Function Attrs: nounwind uwtable
define hidden zeroext i1 @Wayland_GLES_GetSwapInterval(ptr noundef readonly captures(none) %0, ptr noundef writeonly captures(none) %1) local_unnamed_addr #0 {
  %3 = getelementptr inbounds nuw i8, ptr %0, i64 1672
  %4 = load ptr, ptr %3, align 8
  %.not = icmp eq ptr %4, null
  br i1 %.not, label %5, label %7

5:                                                ; preds = %2
  %6 = tail call zeroext i1 (ptr, ...) @SDL_SetError_REAL(ptr noundef nonnull @.str) #4
  br label %10

7:                                                ; preds = %2
  %8 = getelementptr inbounds nuw i8, ptr %4, i64 32
  %9 = load i32, ptr %8, align 8
  store i32 %9, ptr %1, align 4
  br label %10

10:                                               ; preds = %7, %5
  %.0 = phi i1 [ true, %7 ], [ %6, %5 ]
  ret i1 %.0
}